target datalayout = "e-m:e-p270:32:32-p271:32:32-p272:64:64-i64:64-i128:128-f80:128-n8:16:32:64-S128"
target triple = "x86_64-pc-linux-gnu"

%struct.CodedBitstreamContext = type { ptr, ptr, ptr, ptr, i32, i32, i32, ptr, ptr, ptr, ptr, i64 }
%struct.GetBitContext = type { ptr, ptr, i32, i32, i32 }

@.str.1 = private unnamed_addr constant [30 x i8] c"Assertion %s failed at %s:%d\0A\00", align 1
@.str.3 = private unnamed_addr constant [17 x i8] c"libavcodec/cbs.c\00", align 1
@.str.16 = private unnamed_addr constant [25 x i8] c"width > 0 && width <= 32\00", align 1
@.str.17 = private unnamed_addr constant [46 x i8] c"%s out of range: %u, but must be in [%u,%u].\0A\00", align 1
@.str.18 = private unnamed_addr constant [31 x i8] c"start_position <= end_position\00", align 1
@.str.19 = private unnamed_addr constant [39 x i8] c"Invalid value at %s: bitstream ended.\0A\00", align 1

; Function Attrs: alwaysinline nounwind willreturn memory(none) uwtable
define internal i32 @av_bswap32(i32 noundef %0) #12 {
  %2 = alloca i32, align 4
  store i32 %0, ptr %2, align 4, !tbaa !10
  %3 = load i32, ptr %2, align 4, !tbaa !10
  %4 = shl i32 %3, 8
  %5 = and i32 %4, 65280
  %6 = load i32, ptr %2, align 4, !tbaa !10
  %7 = lshr i32 %6, 8
  %8 = and i32 %7, 255
  %9 = or i32 %5, %8
  %10 = shl i32 %9, 16
  %11 = load i32, ptr %2, align 4, !tbaa !10
  %12 = lshr i32 %11, 16
  %13 = shl i32 %12, 8
  %14 = and i32 %13, 65280
  %15 = load i32, ptr %2, align 4, !tbaa !10
  %16 = lshr i32 %15, 16
  %17 = lshr i32 %16, 8
  %18 = and i32 %17, 255
  %19 = or i32 %14, %18
  %20 = or i32 %10, %19
  ret i32 %20
}

; Function Attrs: inlinehint nounwind uwtable
define internal i32 @get_bits(ptr noundef %0, i32 noundef %1) #7 {
  %3 = alloca ptr, align 8
  %4 = alloca i32, align 4
  %5 = alloca i32, align 4
  %6 = alloca i32, align 4
  %7 = alloca i32, align 4
  %8 = alloca i32, align 4
  store ptr %0, ptr %3, align 8, !tbaa !96
  store i32 %1, ptr %4, align 4, !tbaa !10
  call void @llvm.lifetime.start.p0(i64 4, ptr %5) #13
  call void @llvm.lifetime.start.p0(i64 4, ptr %6) #13
  %9 = load ptr, ptr %3, align 8, !tbaa !96
  %10 = getelementptr inbounds nuw %struct.GetBitContext, ptr %9, i32 0, i32 2
  %11 = load i32, ptr %10, align 8, !tbaa !104
  store i32 %11, ptr %6, align 4, !tbaa !10
  call void @llvm.lifetime.start.p0(i64 4, ptr %7) #13
  call void @llvm.lifetime.start.p0(i64 4, ptr %8) #13
  %12 = load ptr, ptr %3, align 8, !tbaa !96
  %13 = getelementptr inbounds nuw %struct.GetBitContext, ptr %12, i32 0, i32 4
  %14 = load i32, ptr %13, align 8, !tbaa !107
  store i32 %14, ptr %8, align 4, !tbaa !10
  %15 = load ptr, ptr %3, align 8, !tbaa !96
  %16 = getelementptr inbounds nuw %struct.GetBitContext, ptr %15, i32 0, i32 0
  %17 = load ptr, ptr %16, align 8, !tbaa !106
  %18 = load i32, ptr %6, align 4, !tbaa !10
  %19 = lshr i32 %18, 3
  %20 = zext i32 %19 to i64
  %21 = getelementptr inbounds nuw i8, ptr %17, i64 %20
  %22 = load i32, ptr %21, align 1, !tbaa !99
  %23 = call i32 @av_bswap32(i32 noundef %22) #16
  %24 = load i32, ptr %6, align 4, !tbaa !10
  %25 = and i32 %24, 7
  %26 = shl i32 %23, %25
  %27 = lshr i32 %26, 0
  store i32 %27, ptr %7, align 4, !tbaa !10
  %28 = load i32, ptr %7, align 4, !tbaa !10
  %29 = load i32, ptr %4, align 4, !tbaa !10
  %30 = sub nsw i32 32, %29
  %31 = lshr i32 %28, %30
  store i32 %31, ptr %5, align 4, !tbaa !10
  %32 = load i32, ptr %8, align 4, !tbaa !10
  %33 = load i32, ptr %6, align 4, !tbaa !10
  %34 = load i32, ptr %4, align 4, !tbaa !10
  %35 = add i32 %33, %34
  %36 = icmp ugt i32 %32, %35
  br i1 %36, label %37, label %41

37:                                               ; preds = %2
  %38 = load i32, ptr %6, align 4, !tbaa !10
  %39 = load i32, ptr %4, align 4, !tbaa !10
  %40 = add i32 %38, %39
  br label %43

41:                                               ; preds = %2
  %42 = load i32, ptr %8, align 4, !tbaa !10
  br label %43

43:                                               ; preds = %41, %37
  %44 = phi i32 [ %40, %37 ], [ %42, %41 ]
  store i32 %44, ptr %6, align 4, !tbaa !10
  %45 = load i32, ptr %6, align 4, !tbaa !10
  %46 = load ptr, ptr %3, align 8, !tbaa !96
  %47 = getelementptr inbounds nuw %struct.GetBitContext, ptr %46, i32 0, i32 2
  store i32 %45, ptr %47, align 8, !tbaa !104
  %48 = load i32, ptr %5, align 4, !tbaa !10
  call void @llvm.lifetime.end.p0(i64 4, ptr %8) #13
  call void @llvm.lifetime.end.p0(i64 4, ptr %7) #13
  call void @llvm.lifetime.end.p0(i64 4, ptr %6) #13
  call void @llvm.lifetime.end.p0(i64 4, ptr %5) #13
  ret i32 %48
}

; Function Attrs: inlinehint nounwind uwtable
define internal i32 @get_bits_count(ptr noundef %0) #7 {
  %2 = alloca ptr, align 8
  store ptr %0, ptr %2, align 8, !tbaa !96
  %3 = load ptr, ptr %2, align 8, !tbaa !96
  %4 = getelementptr inbounds nuw %struct.GetBitContext, ptr %3, i32 0, i32 2
  %5 = load i32, ptr %4, align 8, !tbaa !104
  ret i32 %5
}

; Function Attrs: inlinehint nounwind uwtable
define internal i32 @get_bits_long(ptr noundef %0, i32 noundef %1) #7 {
  %3 = alloca i32, align 4
  %4 = alloca ptr, align 8
  %5 = alloca i32, align 4
  %6 = alloca i32, align 4
  store ptr %0, ptr %4, align 8, !tbaa !96
  store i32 %1, ptr %5, align 4, !tbaa !10
  %7 = load i32, ptr %5, align 4, !tbaa !10
  %8 = icmp ne i32 %7, 0
  br i1 %8, label %10, label %9

9:                                                ; preds = %2
  store i32 0, ptr %3, align 4
  br label %29

10:                                               ; preds = %2
  %11 = load i32, ptr %5, align 4, !tbaa !10
  %12 = icmp sle i32 %11, 25
  br i1 %12, label %13, label %17

13:                                               ; preds = %10
  %14 = load ptr, ptr %4, align 8, !tbaa !96
  %15 = load i32, ptr %5, align 4, !tbaa !10
  %16 = call i32 @get_bits(ptr noundef %14, i32 noundef %15)
  store i32 %16, ptr %3, align 4
  br label %29

17:                                               ; preds = %10
  call void @llvm.lifetime.start.p0(i64 4, ptr %6) #13
  %18 = load ptr, ptr %4, align 8, !tbaa !96
  %19 = call i32 @get_bits(ptr noundef %18, i32 noundef 16)
  %20 = load i32, ptr %5, align 4, !tbaa !10
  %21 = sub nsw i32 %20, 16
  %22 = shl i32 %19, %21
  store i32 %22, ptr %6, align 4, !tbaa !10
  %23 = load i32, ptr %6, align 4, !tbaa !10
  %24 = load ptr, ptr %4, align 8, !tbaa !96
  %25 = load i32, ptr %5, align 4, !tbaa !10
  %26 = sub nsw i32 %25, 16
  %27 = call i32 @get_bits(ptr noundef %24, i32 noundef %26)
  %28 = or i32 %23, %27
  store i32 %28, ptr %3, align 4
  call void @llvm.lifetime.end.p0(i64 4, ptr %6) #13
  br label %29

29:                                               ; preds = %17, %13, %9
  %30 = load i32, ptr %3, align 4
  ret i32 %30
}

; Function Attrs: inlinehint nounwind uwtable
define internal i32 @get_bits_left(ptr noundef %0) #7 {
  %2 = alloca ptr, align 8
  store ptr %0, ptr %2, align 8, !tbaa !96
  %3 = load ptr, ptr %2, align 8, !tbaa !96
  %4 = getelementptr inbounds nuw %struct.GetBitContext, ptr %3, i32 0, i32 3
  %5 = load i32, ptr %4, align 4, !tbaa !118
  %6 = load ptr, ptr %2, align 8, !tbaa !96
  %7 = call i32 @get_bits_count(ptr noundef %6)
  %8 = sub nsw i32 %5, %7
  ret i32 %8
}

; Function Attrs: alwaysinline nounwind uwtable
define internal i32 @cbs_read_unsigned(ptr noundef %0, ptr noundef %1, i32 noundef %2, ptr noundef %3, ptr noundef %4, ptr noundef %5, i32 noundef %6, i32 noundef %7) #10 {
  %9 = alloca i32, align 4
  %10 = alloca ptr, align 8
  %11 = alloca ptr, align 8
  %12 = alloca i32, align 4
  %13 = alloca ptr, align 8
  %14 = alloca ptr, align 8
  %15 = alloca ptr, align 8
  %16 = alloca i32, align 4
  %17 = alloca i32, align 4
  %18 = alloca i32, align 4
  %19 = alloca %struct.GetBitContext, align 8
  %20 = alloca i32, align 4
  %21 = alloca i32, align 4
  %22 = alloca i32, align 4
  store ptr %0, ptr %10, align 8, !tbaa !22
  store ptr %1, ptr %11, align 8, !tbaa !96
  store i32 %2, ptr %12, align 4, !tbaa !10
  store ptr %3, ptr %13, align 8, !tbaa !66
  store ptr %4, ptr %14, align 8, !tbaa !98
  store ptr %5, ptr %15, align 8, !tbaa !98
  store i32 %6, ptr %16, align 4, !tbaa !10
  store i32 %7, ptr %17, align 4, !tbaa !10
  call void @llvm.lifetime.start.p0(i64 4, ptr %18) #13
  call void @llvm.lifetime.start.p0(i64 32, ptr %19) #13
  br label %23

23:                                               ; preds = %8
  %24 = load ptr, ptr %10, align 8, !tbaa !22
  %25 = getelementptr inbounds nuw %struct.CodedBitstreamContext, ptr %24, i32 0, i32 5
  %26 = load i32, ptr %25, align 4, !tbaa !34
  %27 = icmp ne i32 %26, 0
  br i1 %27, label %28, label %30

28:                                               ; preds = %23
  %29 = load ptr, ptr %11, align 8, !tbaa !96
  call void @llvm.memcpy.p0.p0.i64(ptr align 8 %19, ptr align 8 %29, i64 32, i1 false), !tbaa.struct !120
  br label %30

30:                                               ; preds = %28, %23
  br label %31

31:                                               ; preds = %30
  br label %32

32:                                               ; preds = %31
  br label %33

33:                                               ; preds = %32
  %34 = load i32, ptr %12, align 4, !tbaa !10
  %35 = icmp sgt i32 %34, 0
  br i1 %35, label %36, label %39

36:                                               ; preds = %33
  %37 = load i32, ptr %12, align 4, !tbaa !10
  %38 = icmp sle i32 %37, 32
  br i1 %38, label %40, label %39

39:                                               ; preds = %36, %33
  call void (ptr, i32, ptr, ...) @av_log(ptr noundef null, i32 noundef 0, ptr noundef @.str.1, ptr noundef @.str.16, ptr noundef @.str.3, i32 noundef 624)
  call void @abort() #14
  unreachable

40:                                               ; preds = %36
  br label %41

41:                                               ; preds = %40
  br label %42

42:                                               ; preds = %41
  %43 = load ptr, ptr %11, align 8, !tbaa !96
  %44 = call i32 @get_bits_left(ptr noundef %43)
  %45 = load i32, ptr %12, align 4, !tbaa !10
  %46 = icmp slt i32 %44, %45
  br i1 %46, label %47, label %52

47:                                               ; preds = %42
  %48 = load ptr, ptr %10, align 8, !tbaa !22
  %49 = getelementptr inbounds nuw %struct.CodedBitstreamContext, ptr %48, i32 0, i32 0
  %50 = load ptr, ptr %49, align 8, !tbaa !24
  %51 = load ptr, ptr %13, align 8, !tbaa !66
  call void (ptr, i32, ptr, ...) @av_log(ptr noundef %50, i32 noundef 16, ptr noundef @.str.19, ptr noundef %51)
  store i32 -1094995529, ptr %9, align 4
  store i32 1, ptr %20, align 4
  br label %107

52:                                               ; preds = %42
  %53 = load ptr, ptr %11, align 8, !tbaa !96
  %54 = load i32, ptr %12, align 4, !tbaa !10
  %55 = call i32 @get_bits_long(ptr noundef %53, i32 noundef %54)
  store i32 %55, ptr %18, align 4, !tbaa !10
  br label %56

56:                                               ; preds = %52
  %57 = load ptr, ptr %10, align 8, !tbaa !22
  %58 = getelementptr inbounds nuw %struct.CodedBitstreamContext, ptr %57, i32 0, i32 5
  %59 = load i32, ptr %58, align 4, !tbaa !34
  %60 = icmp ne i32 %59, 0
  br i1 %60, label %61, label %86

61:                                               ; preds = %56
  call void @llvm.lifetime.start.p0(i64 4, ptr %21) #13
  %62 = call i32 @get_bits_count(ptr noundef %19)
  store i32 %62, ptr %21, align 4, !tbaa !10
  call void @llvm.lifetime.start.p0(i64 4, ptr %22) #13
  %63 = load ptr, ptr %11, align 8, !tbaa !96
  %64 = call i32 @get_bits_count(ptr noundef %63)
  store i32 %64, ptr %22, align 4, !tbaa !10
  br label %65

65:                                               ; preds = %61
  %66 = load i32, ptr %21, align 4, !tbaa !10
  %67 = load i32, ptr %22, align 4, !tbaa !10
  %68 = icmp sle i32 %66, %67
  br i1 %68, label %70, label %69

69:                                               ; preds = %65
  call void (ptr, i32, ptr, ...) @av_log(ptr noundef null, i32 noundef 0, ptr noundef @.str.1, ptr noundef @.str.18, ptr noundef @.str.3, i32 noundef 634)
  call void @abort() #14
  unreachable

70:                                               ; preds = %65
  br label %71

71:                                               ; preds = %70
  br label %72

72:                                               ; preds = %71
  %73 = load ptr, ptr %10, align 8, !tbaa !22
  %74 = getelementptr inbounds nuw %struct.CodedBitstreamContext, ptr %73, i32 0, i32 8
  %75 = load ptr, ptr %74, align 8, !tbaa !121
  %76 = load ptr, ptr %10, align 8, !tbaa !22
  %77 = getelementptr inbounds nuw %struct.CodedBitstreamContext, ptr %76, i32 0, i32 7
  %78 = load ptr, ptr %77, align 8, !tbaa !36
  %79 = load i32, ptr %22, align 4, !tbaa !10
  %80 = load i32, ptr %21, align 4, !tbaa !10
  %81 = sub nsw i32 %79, %80
  %82 = load ptr, ptr %13, align 8, !tbaa !66
  %83 = load ptr, ptr %14, align 8, !tbaa !98
  %84 = load i32, ptr %18, align 4, !tbaa !10
  %85 = zext i32 %84 to i64
  call void %75(ptr noundef %78, ptr noundef %19, i32 noundef %81, ptr noundef %82, ptr noundef %83, i64 noundef %85)
  call void @llvm.lifetime.end.p0(i64 4, ptr %22) #13
  call void @llvm.lifetime.end.p0(i64 4, ptr %21) #13
  br label %86

86:                                               ; preds = %72, %56
  br label %87

87:                                               ; preds = %86
  br label %88

88:                                               ; preds = %87
  %89 = load i32, ptr %18, align 4, !tbaa !10
  %90 = load i32, ptr %16, align 4, !tbaa !10
  %91 = icmp ult i32 %89, %90
  br i1 %91, label %96, label %92

92:                                               ; preds = %88
  %93 = load i32, ptr %18, align 4, !tbaa !10
  %94 = load i32, ptr %17, align 4, !tbaa !10
  %95 = icmp ugt i32 %93, %94
  br i1 %95, label %96, label %104

96:                                               ; preds = %92, %88
  %97 = load ptr, ptr %10, align 8, !tbaa !22
  %98 = getelementptr inbounds nuw %struct.CodedBitstreamContext, ptr %97, i32 0, i32 0
  %99 = load ptr, ptr %98, align 8, !tbaa !24
  %100 = load ptr, ptr %13, align 8, !tbaa !66
  %101 = load i32, ptr %18, align 4, !tbaa !10
  %102 = load i32, ptr %16, align 4, !tbaa !10
  %103 = load i32, ptr %17, align 4, !tbaa !10
  call void (ptr, i32, ptr, ...) @av_log(ptr noundef %99, i32 noundef 16, ptr noundef @.str.17, ptr noundef %100, i32 noundef %101, i32 noundef %102, i32 noundef %103)
  store i32 -1094995529, ptr %9, align 4
  store i32 1, ptr %20, align 4
  br label %107

104:                                              ; preds = %92
  %105 = load i32, ptr %18, align 4, !tbaa !10
  %106 = load ptr, ptr %15, align 8, !tbaa !98
  store i32 %105, ptr %106, align 4, !tbaa !10
  store i32 0, ptr %9, align 4
  store i32 1, ptr %20, align 4
  br label %107

107:                                              ; preds = %104, %96, %47
  call void @llvm.lifetime.end.p0(i64 32, ptr %19) #13
  call void @llvm.lifetime.end.p0(i64 4, ptr %18) #13
  %108 = load i32, ptr %9, align 4
  ret i32 %108
}

; Function Attrs: nounwind uwtable
define i32 @ff_cbs_read_simple_unsigned(ptr noundef %0, ptr noundef %1, i32 noundef %2, ptr noundef %3, ptr noundef %4) #3 {
  %6 = alloca ptr, align 8
  %7 = alloca ptr, align 8
  %8 = alloca i32, align 4
  %9 = alloca ptr, align 8
  %10 = alloca ptr, align 8
  store ptr %0, ptr %6, align 8, !tbaa !22
  store ptr %1, ptr %7, align 8, !tbaa !96
  store i32 %2, ptr %8, align 4, !tbaa !10
  store ptr %3, ptr %9, align 8, !tbaa !66
  store ptr %4, ptr %10, align 8, !tbaa !98
  %11 = load ptr, ptr %6, align 8, !tbaa !22
  %12 = load ptr, ptr %7, align 8, !tbaa !96
  %13 = load i32, ptr %8, align 4, !tbaa !10
  %14 = load ptr, ptr %9, align 8, !tbaa !66
  %15 = load ptr, ptr %10, align 8, !tbaa !98
  %16 = call i32 @cbs_read_unsigned(ptr noundef %11, ptr noundef %12, i32 noundef %13, ptr noundef %14, ptr noundef null, ptr noundef %15, i32 noundef 0, i32 noundef -1)
  ret i32 %16
}