; Function Attrs: nounwind uwtable
define range(i32 -1094995529, 1) i32 @ff_cbs_read_simple_unsigned(ptr noundef readonly captures(none) %0, ptr noundef captures(none) %1, i32 noundef %2, ptr noundef %3, ptr noundef writeonly captures(none) %4) local_unnamed_addr #3 {
  %6 = alloca %struct.GetBitContext, align 8
  call void @llvm.lifetime.start.p0(i64 32, ptr nonnull %6) #10
  %7 = getelementptr inbounds nuw i8, ptr %0, i64 36
  %8 = load i32, ptr %7, align 4, !tbaa !29
  %.not.i = icmp eq i32 %8, 0
  br i1 %.not.i, label %10, label %9

9:                                                ; preds = %5
  call void @llvm.memcpy.p0.p0.i64(ptr noundef nonnull align 8 dereferenceable(32) %6, ptr noundef nonnull align 8 dereferenceable(32) %1, i64 32, i1 false), !tbaa.struct !106
  br label %10

10:                                               ; preds = %9, %5
  %11 = add i32 %2, -1
  %or.cond.i = icmp ult i32 %11, 32
  br i1 %or.cond.i, label %13, label %12

12:                                               ; preds = %10
  tail call void (ptr, i32, ptr, ...) @av_log(ptr noundef null, i32 noundef 0, ptr noundef nonnull @.str.1, ptr noundef nonnull @.str.16, ptr noundef nonnull @.str.3, i32 noundef 624) #10
  tail call void @abort() #11
  unreachable

13:                                               ; preds = %10
  %14 = getelementptr i8, ptr %1, i64 16
  %.val5 = load i32, ptr %14, align 8, !tbaa !96
  %15 = getelementptr i8, ptr %1, i64 20
  %.val6 = load i32, ptr %15, align 4, !tbaa !104
  %16 = sub nsw i32 %.val6, %.val5
  %17 = icmp slt i32 %16, %2
  br i1 %17, label %18, label %20

18:                                               ; preds = %13
  %19 = load ptr, ptr %0, align 8, !tbaa !19
  tail call void (ptr, i32, ptr, ...) @av_log(ptr noundef %19, i32 noundef 16, ptr noundef nonnull @.str.19, ptr noundef %3) #10
  br label %cbs_read_unsigned.exit

20:                                               ; preds = %13
  %21 = icmp samesign ult i32 %2, 26
  %22 = getelementptr inbounds nuw i8, ptr %1, i64 24
  %23 = load i32, ptr %22, align 8, !tbaa !99
  %24 = load ptr, ptr %1, align 8, !tbaa !98
  %25 = lshr i32 %.val5, 3
  %26 = zext nneg i32 %25 to i64
  %27 = getelementptr inbounds nuw i8, ptr %24, i64 %26
  %28 = load i32, ptr %27, align 1, !tbaa !91
  %29 = tail call i32 @llvm.bswap.i32(i32 %28)
  %30 = and i32 %.val5, 7
  %31 = shl i32 %29, %30
  br i1 %21, label %32, label %37

32:                                               ; preds = %20
  %33 = sub nuw nsw i32 32, %2
  %34 = lshr i32 %31, %33
  %35 = add i32 %.val5, %2
  %36 = tail call i32 @llvm.umin.i32(i32 %23, i32 %35)
  br label %get_bits_long.exit

37:                                               ; preds = %20
  %38 = lshr i32 %31, 16
  %39 = add i32 %.val5, 16
  %40 = tail call i32 @llvm.umin.i32(i32 %23, i32 %39)
  store i32 %40, ptr %14, align 8, !tbaa !96
  %41 = add nsw i32 %2, -16
  %42 = shl nuw i32 %38, %41
  %43 = lshr i32 %40, 3
  %44 = zext nneg i32 %43 to i64
  %45 = getelementptr inbounds nuw i8, ptr %24, i64 %44
  %46 = load i32, ptr %45, align 1, !tbaa !91
  %47 = tail call i32 @llvm.bswap.i32(i32 %46)
  %48 = and i32 %40, 7
  %49 = shl i32 %47, %48
  %50 = sub nuw nsw i32 48, %2
  %51 = lshr i32 %49, %50
  %52 = add i32 %40, %41
  %53 = tail call i32 @llvm.umin.i32(i32 %23, i32 %52)
  %54 = or i32 %51, %42
  br label %get_bits_long.exit

get_bits_long.exit:                               ; preds = %32, %37
  %.val = phi i32 [ %36, %32 ], [ %53, %37 ]
  %.0.i7 = phi i32 [ %34, %32 ], [ %54, %37 ]
  store i32 %.val, ptr %14, align 8, !tbaa !96
  br i1 %.not.i, label %65, label %55

55:                                               ; preds = %get_bits_long.exit
  %56 = getelementptr inbounds nuw i8, ptr %6, i64 16
  %.val4 = load i32, ptr %56, align 8, !tbaa !96
  %.not38.i = icmp sgt i32 %.val4, %.val
  br i1 %.not38.i, label %57, label %58

57:                                               ; preds = %55
  tail call void (ptr, i32, ptr, ...) @av_log(ptr noundef null, i32 noundef 0, ptr noundef nonnull @.str.1, ptr noundef nonnull @.str.18, ptr noundef nonnull @.str.3, i32 noundef 634) #10
  tail call void @abort() #11
  unreachable

58:                                               ; preds = %55
  %59 = getelementptr inbounds nuw i8, ptr %0, i64 56
  %60 = load ptr, ptr %59, align 8, !tbaa !107
  %61 = getelementptr inbounds nuw i8, ptr %0, i64 48
  %62 = load ptr, ptr %61, align 8, !tbaa !31
  %63 = sub nsw i32 %.val, %.val4
  %64 = zext i32 %.0.i7 to i64
  call void %60(ptr noundef %62, ptr noundef nonnull %6, i32 noundef %63, ptr noundef %3, ptr noundef null, i64 noundef %64) #10
  br label %65

65:                                               ; preds = %58, %get_bits_long.exit
  store i32 %.0.i7, ptr %4, align 4, !tbaa !59
  br label %cbs_read_unsigned.exit

cbs_read_unsigned.exit:                           ; preds = %18, %65
  %.0.i = phi i32 [ -1094995529, %18 ], [ 0, %65 ]
  call void @llvm.lifetime.end.p0(i64 32, ptr nonnull %6) #10
  ret i32 %.0.i
}